Certificate:
    Data:
        Version: 3 (0x2)
        Serial Number: 1 (0x1)
        Signature Algorithm: sha256WithRSAEncryption
        Issuer: C=AU, ST=Some-State, O=Internet Widgits Pty Ltd, CN=tfg-web.com
        Validity
            Not Before: Aug 21 17:50:49 2021 GMT
            Not After : Aug 21 17:50:49 2023 GMT
        Subject: C=AU, ST=Some-State, O=Internet Widgits Pty Ltd, CN=tfg-web.com
        Subject Public Key Info:
            Public Key Algorithm: rsaEncryption
                RSA Public-Key: (1024 bit)
                Modulus:
                    00:cc:fd:30:77:42:20:da:bb:45:28:ee:9e:d9:cc:
                    5a:84:95:e1:a2:9f:36:fe:ea:c8:9d:01:f9:c2:b3:
                    96:e4:a1:74:27:be:b9:94:d6:b4:f7:fa:a8:79:84:
                    ac:5b:30:54:ed:eb:92:91:8b:e8:80:09:d2:1d:9d:
                    21:f3:1a:b9:75:8e:b3:57:50:30:98:eb:03:ef:d2:
                    9a:9d:fc:2f:e0:a0:4f:5f:ef:22:64:b9:6b:2c:a7:
                    11:5b:31:03:69:7c:9e:41:bf:76:2b:6f:b0:91:5f:
                    31:a6:e0:c9:a5:a0:77:64:3f:ef:64:71:42:ae:8f:
                    7e:96:f2:b2:05:8d:d8:b9:e3
                Exponent: 65537 (0x10001)
        X509v3 extensions:
            X509v3 Basic Constraints: 
                CA:FALSE
            Netscape Comment: 
                OpenSSL Generated Certificate
            X509v3 Subject Key Identifier: 
                9B:3B:08:80:D2:54:44:20:5E:7C:44:09:E9:A9:9A:F1:A2:4E:BE:51
            X509v3 Authority Key Identifier: 
                DirName:/C=AU/ST=Some-State/O=Internet Widgits Pty Ltd/CN=tfg-web.com
                serial:02:F0:8B:1B:3D:3C:18:9F:D5:4D:9F:C2:D6:2B:5F:77:B2:F5:81:F0

    Signature Algorithm: sha256WithRSAEncryption
         45:10:e7:2d:de:dc:67:c0:a9:ce:81:90:41:15:81:ca:ea:35:
         f4:4b:35:62:c2:d0:e6:67:c5:93:96:e8:2e:7c:8c:f3:82:3e:
         23:99:4c:10:9f:ec:86:ac:4f:6a:ca:e4:be:d8:66:2a:91:46:
         c6:f1:e8:f1:a6:bb:98:44:18:dd:1c:c9:db:1e:4c:e7:cb:e8:
         de:a8:a0:f6:ad:0b:40:0a:b4:2d:8a:a9:8b:86:a2:7c:9d:20:
         ad:c8:08:be:15:88:b3:9b:7b:f4:94:12:15:c8:a4:de:b7:a8:
         93:96:9c:7e:f8:21:f2:a2:d6:97:5f:45:ba:e7:87:fb:a7:11:
         a5:35
-----BEGIN CERTIFICATE-----
MIIDCzCCAnSgAwIBAgIBATANBgkqhkiG9w0BAQsFADBbMQswCQYDVQQGEwJBVTET
MBEGA1UECAwKU29tZS1TdGF0ZTEhMB8GA1UECgwYSW50ZXJuZXQgV2lkZ2l0cyBQ
dHkgTHRkMRQwEgYDVQQDDAt0Zmctd2ViLmNvbTAeFw0yMTA4MjExNzUwNDlaFw0y
MzA4MjExNzUwNDlaMFsxCzAJBgNVBAYTAkFVMRMwEQYDVQQIDApTb21lLVN0YXRl
MSEwHwYDVQQKDBhJbnRlcm5ldCBXaWRnaXRzIFB0eSBMdGQxFDASBgNVBAMMC3Rm
Zy13ZWIuY29tMIGfMA0GCSqGSIb3DQEBAQUAA4GNADCBiQKBgQDM/TB3QiDau0Uo
7p7ZzFqEleGinzb+6sidAfnCs5bkoXQnvrmU1rT3+qh5hKxbMFTt65KRi+iACdId
nSHzGrl1jrNXUDCY6wPv0pqd/C/goE9f7yJkuWsspxFbMQNpfJ5Bv3Yrb7CRXzGm
4MmloHdkP+9kcUKuj36W8rIFjdi54wIDAQABo4HeMIHbMAkGA1UdEwQCMAAwLAYJ
YIZIAYb4QgENBB8WHU9wZW5TU0wgR2VuZXJhdGVkIENlcnRpZmljYXRlMB0GA1Ud
DgQWBBSbOwiA0lREIF58RAnpqZrxok6+UTCBgAYDVR0jBHkwd6FfpF0wWzELMAkG
A1UEBhMCQVUxEzARBgNVBAgMClNvbWUtU3RhdGUxITAfBgNVBAoMGEludGVybmV0
IFdpZGdpdHMgUHR5IEx0ZDEUMBIGA1UEAwwLdGZnLXdlYi5jb22CFALwixs9PBif
1U2fwtYrX3ey9YHwMA0GCSqGSIb3DQEBCwUAA4GBAEUQ5y3e3GfAqc6BkEEVgcrq
NfRLNWLC0OZnxZOW6C58jPOCPiOZTBCf7IasT2rK5L7YZiqRRsbx6PGmu5hEGN0c
ydseTOfL6N6ooPatC0AKtC2KqYuGonydIK3ICL4ViLObe/SUEhXIpN63qJOWnH74
IfKi1pdfRbrnh/unEaU1
-----END CERTIFICATE-----
